target datalayout = "e-m:e-p270:32:32-p271:32:32-p272:64:64-i64:64-i128:128-f80:128-n8:16:32:64-S128"
target triple = "x86_64-unknown-linux-gnu"

%"class.std::__cxx11::basic_string" = type { %"struct.std::__cxx11::basic_string<char>::_Alloc_hider", i64, %union.anon.52 }
%"struct.std::__cxx11::basic_string<char>::_Alloc_hider" = type { ptr }
%union.anon.52 = type { i64, [8 x i8] }
%"class.std::basic_string_view" = type { i64, ptr }

@.str.48 = private unnamed_addr constant [3 x i8] c"25\00", align 1
@.str.71 = private unnamed_addr constant [26 x i8] c"basic_string_view::substr\00", align 1
@.str.72 = private unnamed_addr constant [49 x i8] c"%s: __pos (which is %zu) > __size (which is %zu)\00", align 1

; Function Attrs: mustprogress nounwind uwtable
define linkonce_odr dso_local noundef ptr @_ZNKSt17basic_string_viewIcSt11char_traitsIcEE4dataEv(ptr noundef nonnull align 8 dereferenceable(16) %this) #4 comdat align 2 {
entry:
  %this.addr = alloca ptr, align 8
  store ptr %this, ptr %this.addr, align 8
  %this1 = load ptr, ptr %this.addr, align 8
  %_M_str = getelementptr inbounds %"class.std::basic_string_view", ptr %this1, i32 0, i32 1
  %0 = load ptr, ptr %_M_str, align 8
  ret ptr %0
}

; Function Attrs: mustprogress nounwind uwtable
define linkonce_odr dso_local noundef nonnull align 8 dereferenceable(32) ptr @_ZNSt7__cxx1112basic_stringIcSt11char_traitsIcESaIcEE6appendISt17basic_string_viewIcS2_EEENSt9enable_ifIXsr6__and_ISt14is_convertibleIRKT_S7_ESt6__not_IS9_IPSB_PKS4_EESE_IS9_ISC_PKcEEEE5valueERS4_E4typeESC_(ptr noundef nonnull align 8 dereferenceable(32) %this, ptr noundef nonnull align 8 dereferenceable(16) %__svt) #4 comdat align 2 {
entry:
  %this.addr = alloca ptr, align 8
  %__svt.addr = alloca ptr, align 8
  %__sv = alloca %"class.std::basic_string_view", align 8
  store ptr %this, ptr %this.addr, align 8
  store ptr %__svt, ptr %__svt.addr, align 8
  %this1 = load ptr, ptr %this.addr, align 8
  %0 = load ptr, ptr %__svt.addr, align 8
  call void @llvm.memcpy.p0.p0.i64(ptr align 8 %__sv, ptr align 8 %0, i64 16, i1 false)
  %call = call noundef ptr @_ZNKSt17basic_string_viewIcSt11char_traitsIcEE4dataEv(ptr noundef nonnull align 8 dereferenceable(16) %__sv) #3
  %call2 = call noundef i64 @_ZNKSt17basic_string_viewIcSt11char_traitsIcEE4sizeEv(ptr noundef nonnull align 8 dereferenceable(16) %__sv) #3
  %call3 = call noundef nonnull align 8 dereferenceable(32) ptr @_ZNSt7__cxx1112basic_stringIcSt11char_traitsIcESaIcEE6appendEPKcm(ptr noundef nonnull align 8 dereferenceable(32) %this1, ptr noundef %call, i64 noundef %call2)
  ret ptr %call3
}

; Function Attrs: mustprogress nounwind uwtable
define linkonce_odr dso_local void @_ZNSt17basic_string_viewIcSt11char_traitsIcEEC2EPKcm(ptr noundef nonnull align 8 dereferenceable(16) %this, ptr noundef %__str, i64 noundef %__len) unnamed_addr #4 comdat align 2 {
entry:
  %this.addr = alloca ptr, align 8
  %__str.addr = alloca ptr, align 8
  %__len.addr = alloca i64, align 8
  store ptr %this, ptr %this.addr, align 8
  store ptr %__str, ptr %__str.addr, align 8
  store i64 %__len, ptr %__len.addr, align 8
  %this1 = load ptr, ptr %this.addr, align 8
  %_M_len = getelementptr inbounds %"class.std::basic_string_view", ptr %this1, i32 0, i32 0
  %0 = load i64, ptr %__len.addr, align 8
  store i64 %0, ptr %_M_len, align 8
  %_M_str = getelementptr inbounds %"class.std::basic_string_view", ptr %this1, i32 0, i32 1
  %1 = load ptr, ptr %__str.addr, align 8
  store ptr %1, ptr %_M_str, align 8
  ret void
}

; Function Attrs: mustprogress nounwind uwtable
define linkonce_odr dso_local noundef nonnull align 8 dereferenceable(8) ptr @_ZSt3minImERKT_S2_S2_(ptr noundef nonnull align 8 dereferenceable(8) %__a, ptr noundef nonnull align 8 dereferenceable(8) %__b) #4 comdat {
entry:
  %retval = alloca ptr, align 8
  %__a.addr = alloca ptr, align 8
  %__b.addr = alloca ptr, align 8
  store ptr %__a, ptr %__a.addr, align 8
  store ptr %__b, ptr %__b.addr, align 8
  %0 = load ptr, ptr %__b.addr, align 8
  %1 = load i64, ptr %0, align 8
  %2 = load ptr, ptr %__a.addr, align 8
  %3 = load i64, ptr %2, align 8
  %cmp = icmp ult i64 %1, %3
  br i1 %cmp, label %if.then, label %if.end

if.then:                                          ; preds = %entry
  %4 = load ptr, ptr %__b.addr, align 8
  store ptr %4, ptr %retval, align 8
  br label %return

if.end:                                           ; preds = %entry
  %5 = load ptr, ptr %__a.addr, align 8
  store ptr %5, ptr %retval, align 8
  br label %return

return:                                           ; preds = %if.end, %if.then
  %6 = load ptr, ptr %retval, align 8
  ret ptr %6
}

; Function Attrs: mustprogress nounwind uwtable
define linkonce_odr dso_local noundef i64 @_ZSt10__sv_checkmmPKc(i64 noundef %__size, i64 noundef %__pos, ptr noundef %__s) #4 comdat {
entry:
  %__size.addr = alloca i64, align 8
  %__pos.addr = alloca i64, align 8
  %__s.addr = alloca ptr, align 8
  store i64 %__size, ptr %__size.addr, align 8
  store i64 %__pos, ptr %__pos.addr, align 8
  store ptr %__s, ptr %__s.addr, align 8
  %0 = load i64, ptr %__pos.addr, align 8
  %1 = load i64, ptr %__size.addr, align 8
  %cmp = icmp ugt i64 %0, %1
  br i1 %cmp, label %if.then, label %if.end

if.then:                                          ; preds = %entry
  %2 = load ptr, ptr %__s.addr, align 8
  %3 = load i64, ptr %__pos.addr, align 8
  %4 = load i64, ptr %__size.addr, align 8
  call void (ptr, ...) @_ZSt24__throw_out_of_range_fmtPKcz(ptr noundef @.str.72, ptr noundef %2, i64 noundef %3, i64 noundef %4) #19
  unreachable

if.end:                                           ; preds = %entry
  %5 = load i64, ptr %__pos.addr, align 8
  ret i64 %5
}

; Function Attrs: mustprogress nounwind uwtable
define linkonce_odr dso_local noundef i64 @_ZNKSt17basic_string_viewIcSt11char_traitsIcEE4sizeEv(ptr noundef nonnull align 8 dereferenceable(16) %this) #4 comdat align 2 {
entry:
  %this.addr = alloca ptr, align 8
  store ptr %this, ptr %this.addr, align 8
  %this1 = load ptr, ptr %this.addr, align 8
  %_M_len = getelementptr inbounds %"class.std::basic_string_view", ptr %this1, i32 0, i32 0
  %0 = load i64, ptr %_M_len, align 8
  ret i64 %0
}

; Function Attrs: mustprogress nounwind uwtable
define linkonce_odr dso_local noundef ptr @_ZNSt11char_traitsIcE4findEPKcmRS1_(ptr noundef %__s, i64 noundef %__n, ptr noundef nonnull align 1 dereferenceable(1) %__a) #4 comdat align 2 {
entry:
  %retval = alloca ptr, align 8
  %__s.addr = alloca ptr, align 8
  %__n.addr = alloca i64, align 8
  %__a.addr = alloca ptr, align 8
  store ptr %__s, ptr %__s.addr, align 8
  store i64 %__n, ptr %__n.addr, align 8
  store ptr %__a, ptr %__a.addr, align 8
  %0 = load i64, ptr %__n.addr, align 8
  %cmp = icmp eq i64 %0, 0
  br i1 %cmp, label %if.then, label %if.end

if.then:                                          ; preds = %entry
  store ptr null, ptr %retval, align 8
  br label %return

if.end:                                           ; preds = %entry
  %1 = load ptr, ptr %__s.addr, align 8
  %2 = load ptr, ptr %__a.addr, align 8
  %3 = load i8, ptr %2, align 1
  %conv = sext i8 %3 to i32
  %4 = load i64, ptr %__n.addr, align 8
  %call = call ptr @memchr(ptr noundef %1, i32 noundef %conv, i64 noundef %4) #3
  store ptr %call, ptr %retval, align 8
  br label %return

return:                                           ; preds = %if.end, %if.then
  %5 = load ptr, ptr %retval, align 8
  ret ptr %5
}

; Function Attrs: mustprogress nounwind uwtable
define linkonce_odr dso_local noundef nonnull align 8 dereferenceable(32) ptr @_ZNSt7__cxx1112basic_stringIcSt11char_traitsIcESaIcEEpLISt17basic_string_viewIcS2_EEENSt9enable_ifIXsr6__and_ISt14is_convertibleIRKT_S7_ESt6__not_IS9_IPSB_PKS4_EESE_IS9_ISC_PKcEEEE5valueERS4_E4typeESC_(ptr noundef nonnull align 8 dereferenceable(32) %this, ptr noundef nonnull align 8 dereferenceable(16) %__svt) #4 comdat align 2 {
entry:
  %this.addr = alloca ptr, align 8
  %__svt.addr = alloca ptr, align 8
  store ptr %this, ptr %this.addr, align 8
  store ptr %__svt, ptr %__svt.addr, align 8
  %this1 = load ptr, ptr %this.addr, align 8
  %0 = load ptr, ptr %__svt.addr, align 8
  %call = call noundef nonnull align 8 dereferenceable(32) ptr @_ZNSt7__cxx1112basic_stringIcSt11char_traitsIcESaIcEE6appendISt17basic_string_viewIcS2_EEENSt9enable_ifIXsr6__and_ISt14is_convertibleIRKT_S7_ESt6__not_IS9_IPSB_PKS4_EESE_IS9_ISC_PKcEEEE5valueERS4_E4typeESC_(ptr noundef nonnull align 8 dereferenceable(32) %this1, ptr noundef nonnull align 8 dereferenceable(16) %0)
  ret ptr %call
}

; Function Attrs: mustprogress nounwind uwtable
define linkonce_odr dso_local { i64, ptr } @_ZNKSt17basic_string_viewIcSt11char_traitsIcEE6substrEmm(ptr noundef nonnull align 8 dereferenceable(16) %this, i64 noundef %__pos, i64 noundef %__n) #4 comdat align 2 {
entry:
  %retval = alloca %"class.std::basic_string_view", align 8
  %this.addr = alloca ptr, align 8
  %__pos.addr = alloca i64, align 8
  %__n.addr = alloca i64, align 8
  %__rlen = alloca i64, align 8
  %ref.tmp = alloca i64, align 8
  store ptr %this, ptr %this.addr, align 8
  store i64 %__pos, ptr %__pos.addr, align 8
  store i64 %__n, ptr %__n.addr, align 8
  %this1 = load ptr, ptr %this.addr, align 8
  %call = call noundef i64 @_ZNKSt17basic_string_viewIcSt11char_traitsIcEE4sizeEv(ptr noundef nonnull align 8 dereferenceable(16) %this1) #3
  %0 = load i64, ptr %__pos.addr, align 8
  %call2 = call noundef i64 @_ZSt10__sv_checkmmPKc(i64 noundef %call, i64 noundef %0, ptr noundef @.str.71)
  store i64 %call2, ptr %__pos.addr, align 8
  %_M_len = getelementptr inbounds %"class.std::basic_string_view", ptr %this1, i32 0, i32 0
  %1 = load i64, ptr %_M_len, align 8
  %2 = load i64, ptr %__pos.addr, align 8
  %sub = sub i64 %1, %2
  store i64 %sub, ptr %ref.tmp, align 8
  %call3 = call noundef nonnull align 8 dereferenceable(8) ptr @_ZSt3minImERKT_S2_S2_(ptr noundef nonnull align 8 dereferenceable(8) %__n.addr, ptr noundef nonnull align 8 dereferenceable(8) %ref.tmp)
  %3 = load i64, ptr %call3, align 8
  store i64 %3, ptr %__rlen, align 8
  %_M_str = getelementptr inbounds %"class.std::basic_string_view", ptr %this1, i32 0, i32 1
  %4 = load ptr, ptr %_M_str, align 8
  %5 = load i64, ptr %__pos.addr, align 8
  %add.ptr = getelementptr inbounds i8, ptr %4, i64 %5
  %6 = load i64, ptr %__rlen, align 8
  call void @_ZNSt17basic_string_viewIcSt11char_traitsIcEEC2EPKcm(ptr noundef nonnull align 8 dereferenceable(16) %retval, ptr noundef %add.ptr, i64 noundef %6) #3
  %7 = load { i64, ptr }, ptr %retval, align 8
  ret { i64, ptr } %7
}

; Function Attrs: mustprogress nounwind uwtable
define linkonce_odr dso_local noundef i64 @_ZNKSt17basic_string_viewIcSt11char_traitsIcEE4findEcm(ptr noundef nonnull align 8 dereferenceable(16) %this, i8 noundef signext %__c, i64 noundef %__pos) #4 comdat align 2 {
entry:
  %this.addr = alloca ptr, align 8
  %__c.addr = alloca i8, align 1
  %__pos.addr = alloca i64, align 8
  %__ret = alloca i64, align 8
  %__n = alloca i64, align 8
  %__p = alloca ptr, align 8
  store ptr %this, ptr %this.addr, align 8
  store i8 %__c, ptr %__c.addr, align 1
  store i64 %__pos, ptr %__pos.addr, align 8
  %this1 = load ptr, ptr %this.addr, align 8
  store i64 -1, ptr %__ret, align 8
  %0 = load i64, ptr %__pos.addr, align 8
  %_M_len = getelementptr inbounds %"class.std::basic_string_view", ptr %this1, i32 0, i32 0
  %1 = load i64, ptr %_M_len, align 8
  %cmp = icmp ult i64 %0, %1
  br i1 %cmp, label %if.then, label %if.end5

if.then:                                          ; preds = %entry
  %_M_len2 = getelementptr inbounds %"class.std::basic_string_view", ptr %this1, i32 0, i32 0
  %2 = load i64, ptr %_M_len2, align 8
  %3 = load i64, ptr %__pos.addr, align 8
  %sub = sub i64 %2, %3
  store i64 %sub, ptr %__n, align 8
  %_M_str = getelementptr inbounds %"class.std::basic_string_view", ptr %this1, i32 0, i32 1
  %4 = load ptr, ptr %_M_str, align 8
  %5 = load i64, ptr %__pos.addr, align 8
  %add.ptr = getelementptr inbounds i8, ptr %4, i64 %5
  %6 = load i64, ptr %__n, align 8
  %call = call noundef ptr @_ZNSt11char_traitsIcE4findEPKcmRS1_(ptr noundef %add.ptr, i64 noundef %6, ptr noundef nonnull align 1 dereferenceable(1) %__c.addr)
  store ptr %call, ptr %__p, align 8
  %7 = load ptr, ptr %__p, align 8
  %tobool = icmp ne ptr %7, null
  br i1 %tobool, label %if.then3, label %if.end

if.then3:                                         ; preds = %if.then
  %8 = load ptr, ptr %__p, align 8
  %_M_str4 = getelementptr inbounds %"class.std::basic_string_view", ptr %this1, i32 0, i32 1
  %9 = load ptr, ptr %_M_str4, align 8
  %sub.ptr.lhs.cast = ptrtoint ptr %8 to i64
  %sub.ptr.rhs.cast = ptrtoint ptr %9 to i64
  %sub.ptr.sub = sub i64 %sub.ptr.lhs.cast, %sub.ptr.rhs.cast
  store i64 %sub.ptr.sub, ptr %__ret, align 8
  br label %if.end

if.end:                                           ; preds = %if.then3, %if.then
  br label %if.end5

if.end5:                                          ; preds = %if.end, %entry
  %10 = load i64, ptr %__ret, align 8
  ret i64 %10
}

; Function Attrs: mustprogress nounwind uwtable
define linkonce_odr dso_local noundef zeroext i1 @_ZNKSt17basic_string_viewIcSt11char_traitsIcEE5emptyEv(ptr noundef nonnull align 8 dereferenceable(16) %this) #4 comdat align 2 {
entry:
  %this.addr = alloca ptr, align 8
  store ptr %this, ptr %this.addr, align 8
  %this1 = load ptr, ptr %this.addr, align 8
  %_M_len = getelementptr inbounds %"class.std::basic_string_view", ptr %this1, i32 0, i32 0
  %0 = load i64, ptr %_M_len, align 8
  %cmp = icmp eq i64 %0, 0
  ret i1 %cmp
}

; Function Attrs: mustprogress nounwind uwtable
define dso_local void @_ZN4node3url12FromFilePathB5cxx11ESt17basic_string_viewIcSt11char_traitsIcEE(ptr noalias sret(%"class.std::__cxx11::basic_string") align 8 %agg.result, i64 %file_path.coerce0, ptr %file_path.coerce1) #4 {
entry:
  %result.ptr = alloca ptr, align 8
  %file_path = alloca %"class.std::basic_string_view", align 8
  %pos = alloca i64, align 8
  %agg.tmp = alloca %"class.std::basic_string_view", align 8
  %escaped_file_path = alloca %"class.std::__cxx11::basic_string", align 8
  %ref.tmp = alloca %"class.std::basic_string_view", align 8
  %ref.tmp5 = alloca %"class.std::basic_string_view", align 8
  %agg.tmp16 = alloca %"class.std::basic_string_view", align 8
  store ptr %agg.result, ptr %result.ptr, align 8
  %0 = getelementptr inbounds { i64, ptr }, ptr %file_path, i32 0, i32 0
  store i64 %file_path.coerce0, ptr %0, align 8
  %1 = getelementptr inbounds { i64, ptr }, ptr %file_path, i32 0, i32 1
  store ptr %file_path.coerce1, ptr %1, align 8
  %call = call noundef zeroext i1 @_ZNKSt17basic_string_viewIcSt11char_traitsIcEE5emptyEv(ptr noundef nonnull align 8 dereferenceable(16) %file_path) #3
  br i1 %call, label %cond.true, label %cond.false

cond.true:                                        ; preds = %entry
  br label %cond.end

cond.false:                                       ; preds = %entry
  %call1 = call noundef i64 @_ZNKSt17basic_string_viewIcSt11char_traitsIcEE4findEcm(ptr noundef nonnull align 8 dereferenceable(16) %file_path, i8 noundef signext 37, i64 noundef 0) #3
  br label %cond.end

cond.end:                                         ; preds = %cond.false, %cond.true
  %cond = phi i64 [ -1, %cond.true ], [ %call1, %cond.false ]
  store i64 %cond, ptr %pos, align 8
  %2 = load i64, ptr %pos, align 8
  %cmp = icmp eq i64 %2, -1
  br i1 %cmp, label %if.then, label %if.end

if.then:                                          ; preds = %cond.end
  call void @llvm.memcpy.p0.p0.i64(ptr align 8 %agg.tmp, ptr align 8 %file_path, i64 16, i1 false)
  %3 = getelementptr inbounds { i64, ptr }, ptr %agg.tmp, i32 0, i32 0
  %4 = load i64, ptr %3, align 8
  %5 = getelementptr inbounds { i64, ptr }, ptr %agg.tmp, i32 0, i32 1
  %6 = load ptr, ptr %5, align 8
  call void @_ZN3ada14href_from_fileB5cxx11ESt17basic_string_viewIcSt11char_traitsIcEE(ptr sret(%"class.std::__cxx11::basic_string") align 8 %agg.result, i64 %4, ptr %6)
  br label %return

if.end:                                           ; preds = %cond.end
  call void @_ZNSt7__cxx1112basic_stringIcSt11char_traitsIcESaIcEEC1Ev(ptr noundef nonnull align 8 dereferenceable(32) %escaped_file_path) #3
  br label %do.body

do.body:                                          ; preds = %do.cond, %if.end
  %7 = load i64, ptr %pos, align 8
  %add = add i64 %7, 1
  %call2 = call { i64, ptr } @_ZNKSt17basic_string_viewIcSt11char_traitsIcEE6substrEmm(ptr noundef nonnull align 8 dereferenceable(16) %file_path, i64 noundef 0, i64 noundef %add)
  %8 = getelementptr inbounds { i64, ptr }, ptr %ref.tmp, i32 0, i32 0
  %9 = extractvalue { i64, ptr } %call2, 0
  store i64 %9, ptr %8, align 8
  %10 = getelementptr inbounds { i64, ptr }, ptr %ref.tmp, i32 0, i32 1
  %11 = extractvalue { i64, ptr } %call2, 1
  store ptr %11, ptr %10, align 8
  %call3 = call noundef nonnull align 8 dereferenceable(32) ptr @_ZNSt7__cxx1112basic_stringIcSt11char_traitsIcESaIcEEpLISt17basic_string_viewIcS2_EEENSt9enable_ifIXsr6__and_ISt14is_convertibleIRKT_S7_ESt6__not_IS9_IPSB_PKS4_EESE_IS9_ISC_PKcEEEE5valueERS4_E4typeESC_(ptr noundef nonnull align 8 dereferenceable(32) %escaped_file_path, ptr noundef nonnull align 8 dereferenceable(16) %ref.tmp)
  %call4 = call noundef nonnull align 8 dereferenceable(32) ptr @_ZNSt7__cxx1112basic_stringIcSt11char_traitsIcESaIcEEpLEPKc(ptr noundef nonnull align 8 dereferenceable(32) %escaped_file_path, ptr noundef @.str.48)
  %12 = load i64, ptr %pos, align 8
  %add6 = add i64 %12, 1
  %call7 = call { i64, ptr } @_ZNKSt17basic_string_viewIcSt11char_traitsIcEE6substrEmm(ptr noundef nonnull align 8 dereferenceable(16) %file_path, i64 noundef %add6, i64 noundef -1)
  %13 = getelementptr inbounds { i64, ptr }, ptr %ref.tmp5, i32 0, i32 0
  %14 = extractvalue { i64, ptr } %call7, 0
  store i64 %14, ptr %13, align 8
  %15 = getelementptr inbounds { i64, ptr }, ptr %ref.tmp5, i32 0, i32 1
  %16 = extractvalue { i64, ptr } %call7, 1
  store ptr %16, ptr %15, align 8
  call void @llvm.memcpy.p0.p0.i64(ptr align 8 %file_path, ptr align 8 %ref.tmp5, i64 16, i1 false)
  %call8 = call noundef zeroext i1 @_ZNKSt17basic_string_viewIcSt11char_traitsIcEE5emptyEv(ptr noundef nonnull align 8 dereferenceable(16) %file_path) #3
  br i1 %call8, label %cond.true9, label %cond.false10

cond.true9:                                       ; preds = %do.body
  br label %cond.end12

cond.false10:                                     ; preds = %do.body
  %call11 = call noundef i64 @_ZNKSt17basic_string_viewIcSt11char_traitsIcEE4findEcm(ptr noundef nonnull align 8 dereferenceable(16) %file_path, i8 noundef signext 37, i64 noundef 0) #3
  br label %cond.end12

cond.end12:                                       ; preds = %cond.false10, %cond.true9
  %cond13 = phi i64 [ -1, %cond.true9 ], [ %call11, %cond.false10 ]
  store i64 %cond13, ptr %pos, align 8
  br label %do.cond

do.cond:                                          ; preds = %cond.end12
  %17 = load i64, ptr %pos, align 8
  %cmp14 = icmp ne i64 %17, -1
  br i1 %cmp14, label %do.body, label %do.end, !llvm.loop !8

do.end:                                           ; preds = %do.cond
  %call15 = call noundef nonnull align 8 dereferenceable(32) ptr @_ZNSt7__cxx1112basic_stringIcSt11char_traitsIcESaIcEEpLISt17basic_string_viewIcS2_EEENSt9enable_ifIXsr6__and_ISt14is_convertibleIRKT_S7_ESt6__not_IS9_IPSB_PKS4_EESE_IS9_ISC_PKcEEEE5valueERS4_E4typeESC_(ptr noundef nonnull align 8 dereferenceable(32) %escaped_file_path, ptr noundef nonnull align 8 dereferenceable(16) %file_path)
  %call17 = call { i64, ptr } @_ZNKSt7__cxx1112basic_stringIcSt11char_traitsIcESaIcEEcvSt17basic_string_viewIcS2_EEv(ptr noundef nonnull align 8 dereferenceable(32) %escaped_file_path) #3
  %18 = getelementptr inbounds { i64, ptr }, ptr %agg.tmp16, i32 0, i32 0
  %19 = extractvalue { i64, ptr } %call17, 0
  store i64 %19, ptr %18, align 8
  %20 = getelementptr inbounds { i64, ptr }, ptr %agg.tmp16, i32 0, i32 1
  %21 = extractvalue { i64, ptr } %call17, 1
  store ptr %21, ptr %20, align 8
  %22 = getelementptr inbounds { i64, ptr }, ptr %agg.tmp16, i32 0, i32 0
  %23 = load i64, ptr %22, align 8
  %24 = getelementptr inbounds { i64, ptr }, ptr %agg.tmp16, i32 0, i32 1
  %25 = load ptr, ptr %24, align 8
  call void @_ZN3ada14href_from_fileB5cxx11ESt17basic_string_viewIcSt11char_traitsIcEE(ptr sret(%"class.std::__cxx11::basic_string") align 8 %agg.result, i64 %23, ptr %25)
  call void @_ZNSt7__cxx1112basic_stringIcSt11char_traitsIcESaIcEED1Ev(ptr noundef nonnull align 8 dereferenceable(32) %escaped_file_path) #3
  br label %return

return:                                           ; preds = %do.end, %if.then
  ret void
}