; Function Attrs: mustprogress nounwind uwtable
define dso_local void @_ZN4node3url12FromFilePathB5cxx11ESt17basic_string_viewIcSt11char_traitsIcEE(ptr noalias sret(%"class.std::__cxx11::basic_string") align 8 %agg.result, i64 %file_path.coerce0, ptr %file_path.coerce1) local_unnamed_addr #3 {
entry:
  %escaped_file_path = alloca %"class.std::__cxx11::basic_string", align 8
  %cmp.i = icmp eq i64 %file_path.coerce0, 0
  br i1 %cmp.i, label %if.then, label %if.then.i

if.then.i:                                        ; preds = %entry
  %call.i.i = tail call ptr @memchr(ptr noundef %file_path.coerce1, i32 noundef 37, i64 noundef %file_path.coerce0) #22
  %tobool.not.i = icmp eq ptr %call.i.i, null
  br i1 %tobool.not.i, label %if.then, label %cond.end

cond.end:                                         ; preds = %if.then.i
  %sub.ptr.lhs.cast.i = ptrtoint ptr %call.i.i to i64
  %sub.ptr.rhs.cast.i = ptrtoint ptr %file_path.coerce1 to i64
  %sub.ptr.sub.i = sub i64 %sub.ptr.lhs.cast.i, %sub.ptr.rhs.cast.i
  %cmp = icmp eq i64 %sub.ptr.sub.i, -1
  br i1 %cmp, label %if.then, label %if.end

if.then:                                          ; preds = %if.then.i, %entry, %cond.end
  tail call void @_ZN3ada14href_from_fileB5cxx11ESt17basic_string_viewIcSt11char_traitsIcEE(ptr sret(%"class.std::__cxx11::basic_string") align 8 %agg.result, i64 %file_path.coerce0, ptr %file_path.coerce1) #22
  br label %return

if.end:                                           ; preds = %cond.end
  call void @_ZNSt7__cxx1112basic_stringIcSt11char_traitsIcESaIcEEC1Ev(ptr noundef nonnull align 8 dereferenceable(32) %escaped_file_path) #22
  br label %do.body

do.body:                                          ; preds = %if.then.i12, %if.end
  %file_path.sroa.0.0 = phi i64 [ %file_path.coerce0, %if.end ], [ %sub.i, %if.then.i12 ]
  %file_path.sroa.10.0 = phi ptr [ %file_path.coerce1, %if.end ], [ %add.ptr.i, %if.then.i12 ]
  %pos.0 = phi i64 [ %sub.ptr.sub.i, %if.end ], [ %sub.ptr.sub.i19, %if.then.i12 ]
  %add = add nuw i64 %pos.0, 1
  %.sroa.speculated.i = call i64 @llvm.umin.i64(i64 %file_path.sroa.0.0, i64 %add)
  %call3.i.i = call noundef nonnull align 8 dereferenceable(32) ptr @_ZNSt7__cxx1112basic_stringIcSt11char_traitsIcESaIcEE6appendEPKcm(ptr noundef nonnull align 8 dereferenceable(32) %escaped_file_path, ptr noundef %file_path.sroa.10.0, i64 noundef %.sroa.speculated.i) #22
  %call4 = call noundef nonnull align 8 dereferenceable(32) ptr @_ZNSt7__cxx1112basic_stringIcSt11char_traitsIcESaIcEEpLEPKc(ptr noundef nonnull align 8 dereferenceable(32) %escaped_file_path, ptr noundef nonnull @.str.48) #22
  %cmp.i.i.not = icmp ugt i64 %file_path.sroa.0.0, %pos.0
  br i1 %cmp.i.i.not, label %_ZNKSt17basic_string_viewIcSt11char_traitsIcEE6substrEmm.exit, label %if.then.i.i

if.then.i.i:                                      ; preds = %do.body
  call void (ptr, ...) @_ZSt24__throw_out_of_range_fmtPKcz(ptr noundef nonnull @.str.72, ptr noundef nonnull @.str.71, i64 noundef %add, i64 noundef %file_path.sroa.0.0) #23
  unreachable

_ZNKSt17basic_string_viewIcSt11char_traitsIcEE6substrEmm.exit: ; preds = %do.body
  %sub.i = sub i64 %file_path.sroa.0.0, %add
  %add.ptr.i = getelementptr inbounds i8, ptr %file_path.sroa.10.0, i64 %add
  %cmp.i9 = icmp eq i64 %sub.i, 0
  br i1 %cmp.i9, label %do.end, label %if.then.i12

if.then.i12:                                      ; preds = %_ZNKSt17basic_string_viewIcSt11char_traitsIcEE6substrEmm.exit
  %call.i.i14 = call ptr @memchr(ptr noundef nonnull %add.ptr.i, i32 noundef 37, i64 noundef %sub.i) #22
  %tobool.not.i15 = icmp eq ptr %call.i.i14, null
  %sub.ptr.lhs.cast.i17 = ptrtoint ptr %call.i.i14 to i64
  %sub.ptr.rhs.cast.i18 = ptrtoint ptr %add.ptr.i to i64
  %sub.ptr.sub.i19 = sub i64 %sub.ptr.lhs.cast.i17, %sub.ptr.rhs.cast.i18
  %cmp14.not = icmp eq i64 %sub.ptr.sub.i19, -1
  %or.cond = select i1 %tobool.not.i15, i1 true, i1 %cmp14.not
  br i1 %or.cond, label %do.end, label %do.body, !llvm.loop !35

do.end:                                           ; preds = %if.then.i12, %_ZNKSt17basic_string_viewIcSt11char_traitsIcEE6substrEmm.exit
  %call3.i.i24 = call noundef nonnull align 8 dereferenceable(32) ptr @_ZNSt7__cxx1112basic_stringIcSt11char_traitsIcESaIcEE6appendEPKcm(ptr noundef nonnull align 8 dereferenceable(32) %escaped_file_path, ptr noundef nonnull %add.ptr.i, i64 noundef %sub.i) #22
  %call17 = call { i64, ptr } @_ZNKSt7__cxx1112basic_stringIcSt11char_traitsIcESaIcEEcvSt17basic_string_viewIcS2_EEv(ptr noundef nonnull align 8 dereferenceable(32) %escaped_file_path) #22
  %0 = extractvalue { i64, ptr } %call17, 0
  %1 = extractvalue { i64, ptr } %call17, 1
  call void @_ZN3ada14href_from_fileB5cxx11ESt17basic_string_viewIcSt11char_traitsIcEE(ptr sret(%"class.std::__cxx11::basic_string") align 8 %agg.result, i64 %0, ptr %1) #22
  call void @_ZNSt7__cxx1112basic_stringIcSt11char_traitsIcESaIcEED1Ev(ptr noundef nonnull align 8 dereferenceable(32) %escaped_file_path) #22
  br label %return

return:                                           ; preds = %do.end, %if.then
  ret void
}